; ModuleID = '52/5860.cpp'
source_filename = "52/5860.cpp"
target datalayout = "e-m:e-p270:32:32-p271:32:32-p272:64:64-i64:64-f80:128-n8:16:32:64-S128"
target triple = "x86_64-pc-linux-gnu"

%"class.std::ios_base::Init" = type { i8 }
%"class.std::basic_istream" = type { i32 (...)**, i64, %"class.std::basic_ios" }
%"class.std::basic_ios" = type { %"class.std::ios_base", %"class.std::basic_ostream"*, i8, i8, %"class.std::basic_streambuf"*, %"class.std::ctype"*, %"class.std::num_put"*, %"class.std::num_get"* }
%"class.std::ios_base" = type { i32 (...)**, i64, i64, i32, i32, i32, %"struct.std::ios_base::_Callback_list"*, %"struct.std::ios_base::_Words", [8 x %"struct.std::ios_base::_Words"], i32, %"struct.std::ios_base::_Words"*, %"class.std::locale" }
%"struct.std::ios_base::_Callback_list" = type { %"struct.std::ios_base::_Callback_list"*, void (i32, %"class.std::ios_base"*, i32)*, i32, i32 }
%"struct.std::ios_base::_Words" = type { i8*, i64 }
%"class.std::locale" = type { %"class.std::locale::_Impl"* }
%"class.std::locale::_Impl" = type { i32, %"class.std::locale::facet"**, i64, %"class.std::locale::facet"**, i8** }
%"class.std::locale::facet" = type <{ i32 (...)**, i32, [4 x i8] }>
%"class.std::basic_ostream" = type { i32 (...)**, %"class.std::basic_ios" }
%"class.std::basic_streambuf" = type { i32 (...)**, i8*, i8*, i8*, i8*, i8*, i8*, %"class.std::locale" }
%"class.std::ctype" = type <{ %"class.std::locale::facet.base", [4 x i8], %struct.__locale_struct*, i8, [7 x i8], i32*, i32*, i16*, i8, [256 x i8], [256 x i8], i8, [6 x i8] }>
%"class.std::locale::facet.base" = type <{ i32 (...)**, i32 }>
%struct.__locale_struct = type { [13 x %struct.__locale_data*], i16*, i32*, i32*, [13 x i8*] }
%struct.__locale_data = type opaque
%"class.std::num_put" = type { %"class.std::locale::facet.base", [4 x i8] }
%"class.std::num_get" = type { %"class.std::locale::facet.base", [4 x i8] }

@_ZStL8__ioinit = internal global %"class.std::ios_base::Init" zeroinitializer, align 1
@__dso_handle = external hidden global i8
@len = dso_local global i32 0, align 4
@step = dso_local global i32 0, align 4
@num = dso_local global [102 x i32] zeroinitializer, align 16
@_ZSt3cin = external dso_local global %"class.std::basic_istream", align 8
@_ZSt4cout = external dso_local global %"class.std::basic_ostream", align 8
@.str = private unnamed_addr constant [2 x i8] c" \00", align 1
@llvm.global_ctors = appending global [1 x { i32, void ()*, i8* }] [{ i32, void ()*, i8* } { i32 65535, void ()* @_GLOBAL__sub_I_5860.cpp, i8* null }]

; Function Attrs: noinline uwtable
define internal void @__cxx_global_var_init() #0 section ".text.startup" {
  call void @_ZNSt8ios_base4InitC1Ev(%"class.std::ios_base::Init"* @_ZStL8__ioinit)
  %1 = call i32 @__cxa_atexit(void (i8*)* bitcast (void (%"class.std::ios_base::Init"*)* @_ZNSt8ios_base4InitD1Ev to void (i8*)*), i8* getelementptr inbounds (%"class.std::ios_base::Init", %"class.std::ios_base::Init"* @_ZStL8__ioinit, i32 0, i32 0), i8* @__dso_handle) #3
  ret void
}

declare dso_local void @_ZNSt8ios_base4InitC1Ev(%"class.std::ios_base::Init"*) unnamed_addr #1

; Function Attrs: nounwind
declare dso_local void @_ZNSt8ios_base4InitD1Ev(%"class.std::ios_base::Init"*) unnamed_addr #2

; Function Attrs: nounwind
declare dso_local i32 @__cxa_atexit(void (i8*)*, i8*, i8*) #3

; Function Attrs: noinline norecurse uwtable
define dso_local i32 @main() #4 {
  %1 = alloca i32, align 4
  %2 = alloca i32, align 4
  store i32 0, i32* %1, align 4
  call void @llvm.memset.p0i8.i64(i8* align 16 bitcast ([102 x i32]* @num to i8*), i8 0, i64 408, i1 false)
  %3 = call dereferenceable(280) %"class.std::basic_istream"* @_ZNSirsERi(%"class.std::basic_istream"* @_ZSt3cin, i32* dereferenceable(4) @len)
  %4 = call dereferenceable(280) %"class.std::basic_istream"* @_ZNSirsERi(%"class.std::basic_istream"* %3, i32* dereferenceable(4) @step)
  store i32 0, i32* %2, align 4
  br label %5

5:                                                ; preds = %15, %0
  %6 = load i32, i32* %2, align 4
  %7 = load i32, i32* @len, align 4
  %8 = sub nsw i32 %7, 1
  %9 = icmp sle i32 %6, %8
  br i1 %9, label %10, label %18

10:                                               ; preds = %5
  %11 = load i32, i32* %2, align 4
  %12 = sext i32 %11 to i64
  %13 = getelementptr inbounds i32, i32* getelementptr inbounds ([102 x i32], [102 x i32]* @num, i64 0, i64 0), i64 %12
  %14 = call dereferenceable(280) %"class.std::basic_istream"* @_ZNSirsERi(%"class.std::basic_istream"* @_ZSt3cin, i32* dereferenceable(4) %13)
  br label %15

15:                                               ; preds = %10
  %16 = load i32, i32* %2, align 4
  %17 = add nsw i32 %16, 1
  store i32 %17, i32* %2, align 4
  br label %5

18:                                               ; preds = %5
  %19 = load i32, i32* @step, align 4
  call void @_Z4movePii(i32* getelementptr inbounds ([102 x i32], [102 x i32]* @num, i64 0, i64 0), i32 %19)
  store i32 0, i32* %2, align 4
  br label %20

20:                                               ; preds = %36, %18
  %21 = load i32, i32* %2, align 4
  %22 = load i32, i32* @len, align 4
  %23 = sub nsw i32 %22, 1
  %24 = icmp sle i32 %21, %23
  br i1 %24, label %25, label %39

25:                                               ; preds = %20
  %26 = load i32, i32* %2, align 4
  %27 = icmp ne i32 %26, 0
  br i1 %27, label %28, label %30

28:                                               ; preds = %25
  %29 = call dereferenceable(272) %"class.std::basic_ostream"* @_ZStlsISt11char_traitsIcEERSt13basic_ostreamIcT_ES5_PKc(%"class.std::basic_ostream"* dereferenceable(272) @_ZSt4cout, i8* getelementptr inbounds ([2 x i8], [2 x i8]* @.str, i64 0, i64 0))
  br label %30

30:                                               ; preds = %28, %25
  %31 = load i32, i32* %2, align 4
  %32 = sext i32 %31 to i64
  %33 = getelementptr inbounds i32, i32* getelementptr inbounds ([102 x i32], [102 x i32]* @num, i64 0, i64 0), i64 %32
  %34 = load i32, i32* %33, align 4
  %35 = call dereferenceable(272) %"class.std::basic_ostream"* @_ZNSolsEi(%"class.std::basic_ostream"* @_ZSt4cout, i32 %34)
  br label %36

36:                                               ; preds = %30
  %37 = load i32, i32* %2, align 4
  %38 = add nsw i32 %37, 1
  store i32 %38, i32* %2, align 4
  br label %20

39:                                               ; preds = %20
  ret i32 0
}

; Function Attrs: argmemonly nounwind willreturn
declare void @llvm.memset.p0i8.i64(i8* nocapture writeonly, i8, i64, i1 immarg) #5

declare dso_local dereferenceable(280) %"class.std::basic_istream"* @_ZNSirsERi(%"class.std::basic_istream"*, i32* dereferenceable(4)) #1

; Function Attrs: noinline uwtable
define dso_local void @_Z4movePii(i32* %0, i32 %1) #0 {
  %3 = alloca i32*, align 8
  %4 = alloca i32, align 4
  %5 = alloca i32, align 4
  %6 = alloca i32, align 4
  store i32* %0, i32** %3, align 8
  store i32 %1, i32* %4, align 4
  %7 = load i32, i32* %4, align 4
  %8 = icmp eq i32 %7, 0
  br i1 %8, label %9, label %10

9:                                                ; preds = %2
  br label %42

10:                                               ; preds = %2
  %11 = load i32*, i32** %3, align 8
  %12 = load i32, i32* @len, align 4
  %13 = sext i32 %12 to i64
  %14 = getelementptr inbounds i32, i32* %11, i64 %13
  %15 = getelementptr inbounds i32, i32* %14, i64 -1
  %16 = load i32, i32* %15, align 4
  store i32 %16, i32* %5, align 4
  %17 = load i32, i32* @len, align 4
  %18 = sub nsw i32 %17, 1
  store i32 %18, i32* %6, align 4
  br label %19

19:                                               ; preds = %33, %10
  %20 = load i32, i32* %6, align 4
  %21 = icmp sge i32 %20, 1
  br i1 %21, label %22, label %36

22:                                               ; preds = %19
  %23 = load i32*, i32** %3, align 8
  %24 = load i32, i32* %6, align 4
  %25 = sext i32 %24 to i64
  %26 = getelementptr inbounds i32, i32* %23, i64 %25
  %27 = getelementptr inbounds i32, i32* %26, i64 -1
  %28 = load i32, i32* %27, align 4
  %29 = load i32*, i32** %3, align 8
  %30 = load i32, i32* %6, align 4
  %31 = sext i32 %30 to i64
  %32 = getelementptr inbounds i32, i32* %29, i64 %31
  store i32 %28, i32* %32, align 4
  br label %33

33:                                               ; preds = %22
  %34 = load i32, i32* %6, align 4
  %35 = add nsw i32 %34, -1
  store i32 %35, i32* %6, align 4
  br label %19

36:                                               ; preds = %19
  %37 = load i32, i32* %5, align 4
  %38 = load i32*, i32** %3, align 8
  store i32 %37, i32* %38, align 4
  %39 = load i32*, i32** %3, align 8
  %40 = load i32, i32* %4, align 4
  %41 = sub nsw i32 %40, 1
  call void @_Z4movePii(i32* %39, i32 %41)
  br label %42

42:                                               ; preds = %36, %9
  ret void
}

declare dso_local dereferenceable(272) %"class.std::basic_ostream"* @_ZStlsISt11char_traitsIcEERSt13basic_ostreamIcT_ES5_PKc(%"class.std::basic_ostream"* dereferenceable(272), i8*) #1

declare dso_local dereferenceable(272) %"class.std::basic_ostream"* @_ZNSolsEi(%"class.std::basic_ostream"*, i32) #1

; Function Attrs: noinline uwtable
define internal void @_GLOBAL__sub_I_5860.cpp() #0 section ".text.startup" {
  call void @__cxx_global_var_init()
  ret void
}


!llvm.module.flags = !{!0}
!llvm.ident = !{!1}

!0 = !{i32 1, !"wchar_size", i32 4}
!1 = !{!"clang version 10.0.0-4ubuntu1 "}
